; Function Attrs: mustprogress nofree norecurse nosync nounwind sspstrong willreturn memory(read, inaccessiblemem: none) uwtable
define internal i64 @proc_s_last_status(i64 %0) #0 {
  %2 = tail call align 8 ptr @llvm.threadlocal.address.p0(ptr align 8 @ruby_current_ec)
  %3 = load ptr, ptr %2, align 8, !tbaa !7
  %4 = getelementptr i8, ptr %3, i64 48
  %.val.i.i = load ptr, ptr %4, align 8, !tbaa !12
  %5 = getelementptr inbounds nuw i8, ptr %.val.i.i, i64 208
  %6 = load i64, ptr %5, align 8, !tbaa !24
  ret i64 %6
}